#include <math.h>
#include <stdio.h>
#include <stdlib.h>
#include <string.h>

int main()
{printf("3\n");printf("2\n");printf("0\n");printf("0\n");printf("1\n");printf("1\n");printf("0\n");printf("2\n");printf("2\n");printf("6\n");printf("11\n");return 0;}